; Function Attrs: mustprogress nofree norecurse nosync nounwind willreturn memory(readwrite, inaccessiblemem: none) uwtable
define void @_ZNK5Ipopt19CompoundVectorSpace12GetCompSpaceEi(ptr dead_on_unwind noalias writable writeonly sret(%"class.Ipopt::SmartPtr") align 8 captures(none) initializes((0, 8)) %0, ptr noundef nonnull readonly align 8 captures(none) dereferenceable(48) %1, i32 noundef %2) local_unnamed_addr #2 align 2 {
  %4 = getelementptr inbounds nuw i8, ptr %1, i64 24
  %5 = sext i32 %2 to i64
  %6 = load ptr, ptr %4, align 8, !tbaa !70
  %7 = getelementptr inbounds nuw %"class.Ipopt::SmartPtr", ptr %6, i64 %5
  %8 = load ptr, ptr %7, align 8, !tbaa !10
  %.not.i.i.i = icmp eq ptr %8, null
  br i1 %.not.i.i.i, label %_ZN5Ipopt8SmartPtrIKNS_11VectorSpaceEEC2ERKS3_.exit, label %9

9:                                                ; preds = %3
  %10 = getelementptr inbounds nuw i8, ptr %8, i64 8
  %11 = load i32, ptr %10, align 8, !tbaa !3
  %12 = add nsw i32 %11, 1
  store i32 %12, ptr %10, align 8, !tbaa !3
  br label %_ZN5Ipopt8SmartPtrIKNS_11VectorSpaceEEC2ERKS3_.exit

_ZN5Ipopt8SmartPtrIKNS_11VectorSpaceEEC2ERKS3_.exit: ; preds = %3, %9
  store ptr %8, ptr %0, align 8, !tbaa !10
  ret void
}